; Function Attrs: nounwind uwtable
define dso_local range(i32 -1, 1) i32 @safe_unpackstr_func(ptr noundef writeonly captures(none) initializes((0, 8)) %0, i16 zeroext %1, ptr noundef captures(none) %2) #0 {
  %4 = alloca i32, align 4
  call void @llvm.lifetime.start.p0(i64 4, ptr nonnull %4) #14
  %5 = load ptr, ptr @slurmdbd_conf, align 8
  %.not.i = icmp eq ptr %5, null
  br i1 %.not.i, label %6, label %unpackstr_xmalloc_chooser.exit

6:                                                ; preds = %3
  store ptr null, ptr %0, align 8
  %7 = getelementptr inbounds nuw i8, ptr %2, i64 16
  %8 = load i32, ptr %7, align 8
  %9 = getelementptr inbounds nuw i8, ptr %2, i64 20
  %10 = load i32, ptr %9, align 4
  %11 = sub i32 %8, %10
  %12 = icmp ult i32 %11, 4
  br i1 %12, label %unpackstr_xmalloc_chooser.exit.thread7, label %13

13:                                               ; preds = %6
  %14 = getelementptr inbounds nuw i8, ptr %2, i64 8
  %15 = load ptr, ptr %14, align 8
  %16 = zext i32 %10 to i64
  %17 = getelementptr inbounds nuw i8, ptr %15, i64 %16
  %.0.copyload.i.i = load i32, ptr %17, align 1
  %18 = tail call noundef i32 @llvm.bswap.i32(i32 %.0.copyload.i.i)
  %19 = add i32 %10, 4
  store i32 %19, ptr %9, align 4
  %.not27.i = icmp eq i32 %.0.copyload.i.i, 0
  br i1 %.not27.i, label %unpackstr_xmalloc_chooser.exit.thread, label %20

20:                                               ; preds = %13
  %21 = icmp ugt i32 %18, 1073741824
  br i1 %21, label %22, label %24

22:                                               ; preds = %20
  %23 = tail call i32 (ptr, ...) @error(ptr noundef nonnull @.str.15, ptr noundef nonnull @__func__.unpackstr_xmalloc, i32 noundef %18, i32 noundef 1073741824) #14
  br label %unpackstr_xmalloc_chooser.exit.thread7

24:                                               ; preds = %20
  %25 = sub i32 %8, %19
  %26 = icmp ult i32 %25, %18
  br i1 %26, label %unpackstr_xmalloc_chooser.exit.thread7, label %27

27:                                               ; preds = %24
  %28 = add i32 %10, 3
  %29 = add i32 %28, %18
  %30 = zext i32 %29 to i64
  %31 = getelementptr inbounds nuw i8, ptr %15, i64 %30
  %32 = load i8, ptr %31, align 1
  %.not28.i = icmp eq i8 %32, 0
  br i1 %.not28.i, label %33, label %unpackstr_xmalloc_chooser.exit.thread7

33:                                               ; preds = %27
  %34 = zext nneg i32 %18 to i64
  %35 = tail call ptr @slurm_xcalloc(i64 noundef 1, i64 noundef %34, i1 noundef zeroext true, i1 noundef zeroext true, ptr noundef nonnull @.str.1, i32 noundef 969, ptr noundef nonnull @__func__.unpackstr_xmalloc) #14
  store ptr %35, ptr %0, align 8
  %.not29.i = icmp eq ptr %35, null
  br i1 %.not29.i, label %unpackstr_xmalloc_chooser.exit.thread7, label %36

36:                                               ; preds = %33
  %37 = load ptr, ptr %14, align 8
  %38 = load i32, ptr %9, align 4
  %39 = zext i32 %38 to i64
  %40 = getelementptr inbounds nuw i8, ptr %37, i64 %39
  tail call void @llvm.memcpy.p0.p0.i64(ptr nonnull align 1 %35, ptr align 1 %40, i64 %34, i1 false)
  %41 = load i32, ptr %9, align 4
  %42 = add i32 %41, %18
  store i32 %42, ptr %9, align 4
  br label %unpackstr_xmalloc_chooser.exit.thread

unpackstr_xmalloc_chooser.exit.thread7:           ; preds = %6, %22, %24, %27, %33
  call void @llvm.lifetime.end.p0(i64 4, ptr nonnull %4) #14
  br label %45

unpackstr_xmalloc_chooser.exit.thread:            ; preds = %36, %13
  call void @llvm.lifetime.end.p0(i64 4, ptr nonnull %4) #14
  br label %44

unpackstr_xmalloc_chooser.exit:                   ; preds = %3
  %43 = call i32 @unpackstr_xmalloc_escaped(ptr noundef %0, ptr noundef nonnull %4, ptr noundef %2)
  %.fr = freeze i32 %43
  %.not = icmp eq i32 %.fr, 0
  call void @llvm.lifetime.end.p0(i64 4, ptr nonnull %4) #14
  br i1 %.not, label %44, label %45

44:                                               ; preds = %unpackstr_xmalloc_chooser.exit.thread, %unpackstr_xmalloc_chooser.exit
  br label %45

45:                                               ; preds = %unpackstr_xmalloc_chooser.exit.thread7, %unpackstr_xmalloc_chooser.exit, %44
  %46 = phi i32 [ 0, %44 ], [ -1, %unpackstr_xmalloc_chooser.exit ], [ -1, %unpackstr_xmalloc_chooser.exit.thread7 ]
  ret i32 %46
}